target datalayout = "e-m:e-p270:32:32-p271:32:32-p272:64:64-i64:64-i128:128-f80:128-n8:16:32:64-S128"
target triple = "x86_64-unknown-linux-gnu"

%struct.llist_head = type { ptr }
%struct.blocking_notifier_head = type { %struct.rw_semaphore, ptr }
%struct.rw_semaphore = type { %struct.atomic64_t, %struct.atomic64_t, %struct.optimistic_spin_queue, %struct.raw_spinlock, %struct.list_head }
%struct.atomic64_t = type { i64 }
%struct.optimistic_spin_queue = type { %struct.atomic_t }
%struct.atomic_t = type { i32 }
%struct.raw_spinlock = type { %struct.qspinlock }
%struct.qspinlock = type { %union.anon }
%union.anon = type { %struct.atomic_t }
%struct.list_head = type { ptr, ptr }
%struct.ratelimit_state = type { %struct.raw_spinlock, i32, i32, i32, i32, i64, i64 }

@mce_event_llist = internal global %struct.llist_head zeroinitializer, align 8
@x86_mce_decoder_chain = external dso_local global %struct.blocking_notifier_head, align 8
@mce_evt_pool = internal unnamed_addr global ptr null, align 8
@mce_gen_pool_add._rs = internal global %struct.ratelimit_state { %struct.raw_spinlock zeroinitializer, i32 5000, i32 10, i32 0, i32 0, i64 0, i64 0 }, align 8
@__func__.mce_gen_pool_add = private unnamed_addr constant [17 x i8] c"mce_gen_pool_add\00", align 1
@.str = private unnamed_addr constant [31 x i8] c"\014mce: MCE records pool full!\0A\00", align 1
@gen_pool_buf = internal global [8192 x i8] zeroinitializer, align 16

; Function Attrs: fn_ret_thunk_extern nounwind null_pointer_is_valid
define dso_local ptr @mce_gen_pool_prepare_records() local_unnamed_addr #0 align 16 {
  %1 = alloca %struct.llist_head, align 8
  call void @llvm.lifetime.start.p0(i64 8, ptr nonnull %1) #6
  store i64 0, ptr %1, align 8
  %2 = tail call ptr asm sideeffect "xchgq ${0:q}, $1\0A", "=r,=*m,0,*m,~{memory},~{cc},~{dirflag},~{fpsr},~{flags}"(ptr nonnull elementtype(ptr) @mce_event_llist, ptr null, ptr nonnull elementtype(ptr) @mce_event_llist) #6, !srcloc !5
  %3 = icmp eq ptr %2, null
  br i1 %3, label %46, label %4

4:                                                ; preds = %42, %0
  %5 = phi ptr [ %6, %42 ], [ %2, %0 ]
  %6 = load ptr, ptr %5, align 8
  %7 = getelementptr inbounds i8, ptr %5, i64 8
  %8 = getelementptr inbounds i8, ptr %5, i64 16
  %9 = icmp ne ptr %6, null
  br i1 %9, label %10, label %38

10:                                               ; preds = %4
  %11 = getelementptr inbounds i8, ptr %5, i64 73
  %12 = load i8, ptr %11, align 1
  %13 = getelementptr inbounds i8, ptr %5, i64 24
  br label %14

14:                                               ; preds = %35, %10
  %15 = phi i1 [ true, %10 ], [ %37, %35 ]
  %16 = phi ptr [ %6, %10 ], [ %36, %35 ]
  %17 = getelementptr inbounds i8, ptr %16, i64 73
  %18 = load i8, ptr %17, align 1
  %19 = icmp eq i8 %12, %18
  br i1 %19, label %20, label %35

20:                                               ; preds = %14
  %21 = getelementptr inbounds i8, ptr %16, i64 8
  %22 = load i64, ptr %7, align 8
  %23 = load i64, ptr %21, align 8
  %24 = icmp eq i64 %22, %23
  br i1 %24, label %25, label %35

25:                                               ; preds = %20
  %26 = load i64, ptr %13, align 8
  %27 = getelementptr inbounds i8, ptr %16, i64 24
  %28 = load i64, ptr %27, align 8
  %29 = icmp eq i64 %26, %28
  br i1 %29, label %30, label %35

30:                                               ; preds = %25
  %31 = load i64, ptr %8, align 8
  %32 = getelementptr inbounds i8, ptr %16, i64 16
  %33 = load i64, ptr %32, align 8
  %34 = icmp eq i64 %31, %33
  br i1 %34, label %38, label %35

35:                                               ; preds = %30, %25, %20, %14
  %36 = load ptr, ptr %16, align 8
  %37 = icmp ne ptr %36, null
  br i1 %37, label %14, label %38, !llvm.loop !6

38:                                               ; preds = %35, %30, %4
  %39 = phi i1 [ %9, %4 ], [ %15, %30 ], [ %37, %35 ]
  br i1 %39, label %42, label %40

40:                                               ; preds = %38
  %41 = call zeroext i1 @llist_add_batch(ptr noundef nonnull %5, ptr noundef nonnull %5, ptr noundef nonnull %1) #6
  br label %42

42:                                               ; preds = %40, %38
  %43 = icmp eq ptr %6, null
  br i1 %43, label %44, label %4, !llvm.loop !9

44:                                               ; preds = %42
  %45 = load ptr, ptr %1, align 8
  br label %46

46:                                               ; preds = %44, %0
  %47 = phi ptr [ %45, %44 ], [ null, %0 ]
  call void @llvm.lifetime.end.p0(i64 8, ptr nonnull %1) #6
  ret ptr %47
}

; Function Attrs: nocallback nofree nosync nounwind willreturn memory(argmem: readwrite)
declare void @llvm.lifetime.start.p0(i64 immarg, ptr nocapture) #1

; Function Attrs: nocallback nofree nosync nounwind willreturn memory(argmem: readwrite)
declare void @llvm.lifetime.end.p0(i64 immarg, ptr nocapture) #1

; Function Attrs: fn_ret_thunk_extern nounwind null_pointer_is_valid
define dso_local void @mce_gen_pool_process(ptr nocapture noundef readnone %0) local_unnamed_addr #0 align 16 {
  %2 = tail call ptr asm sideeffect "xchgq ${0:q}, $1\0A", "=r,=*m,0,*m,~{memory},~{cc},~{dirflag},~{fpsr},~{flags}"(ptr nonnull elementtype(ptr) @mce_event_llist, ptr null, ptr nonnull elementtype(ptr) @mce_event_llist) #6, !srcloc !5
  %3 = icmp eq ptr %2, null
  br i1 %3, label %15, label %4

4:                                                ; preds = %1
  %5 = tail call ptr @llist_reverse_order(ptr noundef nonnull %2) #6
  %6 = icmp eq ptr %5, null
  br i1 %6, label %15, label %7

7:                                                ; preds = %7, %4
  %8 = phi ptr [ %10, %7 ], [ %5, %4 ]
  %9 = ptrtoint ptr %8 to i64
  %10 = load ptr, ptr %8, align 8
  %11 = getelementptr inbounds i8, ptr %8, i64 8
  %12 = tail call i32 @blocking_notifier_call_chain(ptr noundef nonnull @x86_mce_decoder_chain, i64 noundef 0, ptr noundef %11) #6
  %13 = load ptr, ptr @mce_evt_pool, align 8
  tail call void @gen_pool_free_owner(ptr noundef %13, i64 noundef %9, i64 noundef 136, ptr noundef null) #6
  %14 = icmp eq ptr %10, null
  br i1 %14, label %15, label %7, !llvm.loop !10

15:                                               ; preds = %7, %4, %1
  ret void
}

; Function Attrs: null_pointer_is_valid
declare dso_local ptr @llist_reverse_order(ptr noundef) local_unnamed_addr #2

; Function Attrs: null_pointer_is_valid
declare dso_local i32 @blocking_notifier_call_chain(ptr noundef, i64 noundef, ptr noundef) local_unnamed_addr #2

; Function Attrs: fn_ret_thunk_extern mustprogress nofree norecurse nounwind null_pointer_is_valid willreturn memory(readwrite, argmem: none)
define dso_local zeroext i1 @mce_gen_pool_empty() local_unnamed_addr #3 align 16 {
  %1 = load volatile ptr, ptr @mce_event_llist, align 8
  %2 = icmp eq ptr %1, null
  ret i1 %2
}

; Function Attrs: fn_ret_thunk_extern nounwind null_pointer_is_valid
define dso_local noundef i32 @mce_gen_pool_add(ptr noundef %0) local_unnamed_addr #0 align 16 {
  %2 = tail call zeroext i1 @filter_mce(ptr noundef %0) #6
  br i1 %2, label %22, label %3

3:                                                ; preds = %1
  %4 = load ptr, ptr @mce_evt_pool, align 8
  %5 = icmp eq ptr %4, null
  br i1 %5, label %22, label %6

6:                                                ; preds = %3
  %7 = getelementptr inbounds i8, ptr %4, i64 32
  %8 = load ptr, ptr %7, align 8
  %9 = getelementptr inbounds i8, ptr %4, i64 40
  %10 = load ptr, ptr %9, align 8
  %11 = tail call i64 @gen_pool_alloc_algo_owner(ptr noundef nonnull %4, i64 noundef 136, ptr noundef %8, ptr noundef %10, ptr noundef null) #6
  %12 = icmp eq i64 %11, 0
  br i1 %12, label %13, label %18

13:                                               ; preds = %6
  %14 = tail call i32 @___ratelimit(ptr noundef nonnull @mce_gen_pool_add._rs, ptr noundef nonnull @__func__.mce_gen_pool_add) #6
  %15 = icmp eq i32 %14, 0
  br i1 %15, label %22, label %16

16:                                               ; preds = %13
  %17 = tail call i32 (ptr, ...) @_printk(ptr noundef nonnull @.str) #7
  br label %22

18:                                               ; preds = %6
  %19 = inttoptr i64 %11 to ptr
  %20 = getelementptr inbounds i8, ptr %19, i64 8
  tail call void @llvm.memcpy.p0.p0.i64(ptr noundef align 8 dereferenceable(128) %20, ptr noundef align 8 dereferenceable(128) %0, i64 128, i1 false)
  %21 = tail call zeroext i1 @llist_add_batch(ptr noundef nonnull %19, ptr noundef nonnull %19, ptr noundef nonnull @mce_event_llist) #6
  br label %22

22:                                               ; preds = %18, %16, %13, %3, %1
  %23 = phi i32 [ 0, %18 ], [ -22, %1 ], [ -22, %3 ], [ -12, %16 ], [ -12, %13 ]
  ret i32 %23
}

; Function Attrs: null_pointer_is_valid
declare dso_local zeroext i1 @filter_mce(ptr noundef) local_unnamed_addr #2

; Function Attrs: null_pointer_is_valid
declare dso_local i32 @___ratelimit(ptr noundef, ptr noundef) local_unnamed_addr #2

; Function Attrs: cold null_pointer_is_valid
declare dso_local i32 @_printk(ptr noundef, ...) local_unnamed_addr #4

; Function Attrs: nocallback nofree nounwind willreturn memory(argmem: readwrite)
declare void @llvm.memcpy.p0.p0.i64(ptr noalias nocapture writeonly, ptr noalias nocapture readonly, i64, i1 immarg) #5

; Function Attrs: fn_ret_thunk_extern nounwind null_pointer_is_valid
define dso_local i32 @mce_gen_pool_init() local_unnamed_addr #0 align 16 {
  %1 = load ptr, ptr @mce_evt_pool, align 8
  %2 = icmp eq ptr %1, null
  br i1 %2, label %3, label %11

3:                                                ; preds = %0
  %4 = tail call ptr @gen_pool_create(i32 noundef 7, i32 noundef -1) #6
  %5 = icmp eq ptr %4, null
  br i1 %5, label %11, label %6

6:                                                ; preds = %3
  %7 = tail call i32 @gen_pool_add_owner(ptr noundef nonnull %4, i64 noundef ptrtoint (ptr @gen_pool_buf to i64), i64 noundef -1, i64 noundef 8192, i32 noundef -1, ptr noundef null) #6
  %8 = icmp eq i32 %7, 0
  br i1 %8, label %10, label %9

9:                                                ; preds = %6
  tail call void @gen_pool_destroy(ptr noundef nonnull %4) #6
  br label %11

10:                                               ; preds = %6
  store ptr %4, ptr @mce_evt_pool, align 8
  br label %11

11:                                               ; preds = %10, %9, %3, %0
  %12 = phi i32 [ 0, %0 ], [ %7, %9 ], [ 0, %10 ], [ -12, %3 ]
  ret i32 %12
}

; Function Attrs: null_pointer_is_valid
declare dso_local zeroext i1 @llist_add_batch(ptr noundef, ptr noundef, ptr noundef) local_unnamed_addr #2

; Function Attrs: null_pointer_is_valid
declare dso_local void @gen_pool_free_owner(ptr noundef, i64 noundef, i64 noundef, ptr noundef) local_unnamed_addr #2

; Function Attrs: null_pointer_is_valid
declare dso_local i64 @gen_pool_alloc_algo_owner(ptr noundef, i64 noundef, ptr noundef, ptr noundef, ptr noundef) local_unnamed_addr #2

; Function Attrs: null_pointer_is_valid
declare dso_local ptr @gen_pool_create(i32 noundef, i32 noundef) local_unnamed_addr #2

; Function Attrs: null_pointer_is_valid
declare dso_local void @gen_pool_destroy(ptr noundef) local_unnamed_addr #2

; Function Attrs: null_pointer_is_valid
declare dso_local i32 @gen_pool_add_owner(ptr noundef, i64 noundef, i64 noundef, i64 noundef, i32 noundef, ptr noundef) local_unnamed_addr #2


!llvm.module.flags = !{!0, !1, !2, !3, !4}

!0 = !{i32 1, !"wchar_size", i32 2}
!1 = !{i32 8, !"cf-protection-branch", i32 1}
!2 = !{i32 4, !"function_return_thunk_extern", i32 1}
!3 = !{i32 4, !"indirect_branch_cs_prefix", i32 1}
!4 = !{i32 4, !"SkipRaxSetup", i32 1}
!5 = !{i64 2148932645}
!6 = distinct !{!6, !7, !8}
!7 = !{!"llvm.loop.mustprogress"}
!8 = !{!"llvm.loop.unroll.disable"}
!9 = distinct !{!9, !7, !8}
!10 = distinct !{!10, !7, !8}
